target datalayout = "e-m:e-p270:32:32-p271:32:32-p272:64:64-i64:64-i128:128-f80:128-n8:16:32:64-S128"
target triple = "x86_64-pc-linux-gnu"

%struct.H5FD_sec2_t = type { %struct.H5FD_t, i32, i64, i64, i8, [1024 x i8], i64, i64, i8 }
%struct.H5FD_t = type { i64, ptr, i64, i32, i64, i64, i64, i64, i64, i8 }

@.str.4 = private unnamed_addr constant [102 x i8] c"generated/home/dtcxzyw/WorkSpace/Projects/compilers/llvm-opt-benchmark/bench/hdf5/hdf5/src/H5FDsec2.c\00", align 1
@.str.12 = private unnamed_addr constant [37 x i8] c"%s, errno = %d, error message = '%s'\00", align 1
@H5E_IO_g = external global i64, align 8
@__func__.H5FD__sec2_truncate = private unnamed_addr constant [20 x i8] c"H5FD__sec2_truncate\00", align 1
@H5E_SEEKERROR_g = external global i64, align 8
@.str.27 = private unnamed_addr constant [31 x i8] c"unable to extend file properly\00", align 1

; Function Attrs: nounwind uwtable
define internal i32 @H5FD__sec2_truncate(ptr noundef %0, i64 noundef %1, i1 noundef zeroext %2) #0 {
  %4 = alloca ptr, align 8
  %5 = alloca i64, align 8
  %6 = alloca i8, align 1
  %7 = alloca ptr, align 8
  %8 = alloca i32, align 4
  %9 = alloca i8, align 1
  %10 = alloca i32, align 4
  store ptr %0, ptr %4, align 8
  store i64 %1, ptr %5, align 8
  %11 = zext i1 %2 to i8
  store i8 %11, ptr %6, align 1
  %12 = load ptr, ptr %4, align 8
  store ptr %12, ptr %7, align 8
  store i32 0, ptr %8, align 4
  store i8 0, ptr %9, align 1
  %13 = load ptr, ptr %7, align 8
  %14 = getelementptr inbounds %struct.H5FD_sec2_t, ptr %13, i32 0, i32 2
  %15 = load i64, ptr %14, align 8
  %16 = icmp ne i64 %15, -1
  br i1 %16, label %17, label %25

17:                                               ; preds = %3
  %18 = load ptr, ptr %7, align 8
  %19 = getelementptr inbounds %struct.H5FD_sec2_t, ptr %18, i32 0, i32 2
  %20 = load i64, ptr %19, align 8
  %21 = load ptr, ptr %7, align 8
  %22 = getelementptr inbounds %struct.H5FD_sec2_t, ptr %21, i32 0, i32 3
  %23 = load i64, ptr %22, align 8
  %24 = icmp eq i64 %20, %23
  br i1 %24, label %60, label %25

25:                                               ; preds = %17, %3
  %26 = load ptr, ptr %7, align 8
  %27 = getelementptr inbounds %struct.H5FD_sec2_t, ptr %26, i32 0, i32 1
  %28 = load i32, ptr %27, align 8
  %29 = load ptr, ptr %7, align 8
  %30 = getelementptr inbounds %struct.H5FD_sec2_t, ptr %29, i32 0, i32 2
  %31 = load i64, ptr %30, align 8
  %32 = call i32 @ftruncate64(i32 noundef %28, i64 noundef %31) #6
  %33 = icmp eq i32 -1, %32
  br i1 %33, label %34, label %54

34:                                               ; preds = %25
  %35 = call ptr @__errno_location() #8
  %36 = load i32, ptr %35, align 4
  store i32 %36, ptr %10, align 4
  br label %37

37:                                               ; preds = %34
  br label %38

38:                                               ; preds = %37
  br label %39

39:                                               ; preds = %38
  %40 = load i64, ptr @H5E_IO_g, align 8
  %41 = load i64, ptr @H5E_SEEKERROR_g, align 8
  %42 = load i32, ptr %10, align 4
  %43 = load i32, ptr %10, align 4
  %44 = call ptr @strerror(i32 noundef %43) #6
  %45 = call i32 (ptr, ptr, i32, i64, i64, ptr, ...) @H5E_printf_stack(ptr noundef @.str.4, ptr noundef @__func__.H5FD__sec2_truncate, i32 noundef 902, i64 noundef %40, i64 noundef %41, ptr noundef @.str.12, ptr noundef @.str.27, i32 noundef %42, ptr noundef %44)
  br label %46

46:                                               ; preds = %39
  store i8 1, ptr %9, align 1
  %47 = load i8, ptr %9, align 1
  %48 = trunc i8 %47 to i1
  %49 = zext i1 %48 to i8
  store i8 %49, ptr %9, align 1
  br label %50

50:                                               ; preds = %46
  br label %51

51:                                               ; preds = %50
  store i32 -1, ptr %8, align 4
  br label %61

52:                                               ; No predecessors!
  br label %53

53:                                               ; preds = %52
  br label %54

54:                                               ; preds = %53, %25
  %55 = load ptr, ptr %7, align 8
  %56 = getelementptr inbounds %struct.H5FD_sec2_t, ptr %55, i32 0, i32 2
  %57 = load i64, ptr %56, align 8
  %58 = load ptr, ptr %7, align 8
  %59 = getelementptr inbounds %struct.H5FD_sec2_t, ptr %58, i32 0, i32 3
  store i64 %57, ptr %59, align 8
  br label %60

60:                                               ; preds = %54, %17
  br label %61

61:                                               ; preds = %60, %51
  %62 = load i32, ptr %8, align 4
  ret i32 %62
}