; Function Attrs: nounwind uwtable
define internal range(i32 -1, 1) i32 @H5FD__sec2_truncate(ptr nocapture noundef %0, i64 %1, i1 zeroext %2) #0 {
  %4 = getelementptr inbounds i8, ptr %0, i64 88
  %5 = load i64, ptr %4, align 8
  %.not = icmp eq i64 %5, -1
  br i1 %.not, label %10, label %6

6:                                                ; preds = %3
  %7 = getelementptr inbounds i8, ptr %0, i64 96
  %8 = load i64, ptr %7, align 8
  %9 = icmp eq i64 %5, %8
  br i1 %9, label %25, label %10

10:                                               ; preds = %6, %3
  %11 = getelementptr inbounds i8, ptr %0, i64 80
  %12 = load i32, ptr %11, align 8
  %13 = tail call i32 @ftruncate64(i32 noundef %12, i64 noundef %5) #15
  %14 = icmp eq i32 %13, -1
  br i1 %14, label %15, label %22

15:                                               ; preds = %10
  %16 = tail call ptr @__errno_location() #17
  %17 = load i32, ptr %16, align 4
  %18 = load i64, ptr @H5E_IO_g, align 8
  %19 = load i64, ptr @H5E_SEEKERROR_g, align 8
  %20 = tail call ptr @strerror(i32 noundef %17) #15
  %21 = tail call i32 (ptr, ptr, i32, i64, i64, ptr, ...) @H5E_printf_stack(ptr noundef nonnull @.str.4, ptr noundef nonnull @__func__.H5FD__sec2_truncate, i32 noundef 902, i64 noundef %18, i64 noundef %19, ptr noundef nonnull @.str.12, ptr noundef nonnull @.str.27, i32 noundef %17, ptr noundef %20) #15
  br label %25

22:                                               ; preds = %10
  %23 = load i64, ptr %4, align 8
  %24 = getelementptr inbounds i8, ptr %0, i64 96
  store i64 %23, ptr %24, align 8
  br label %25

25:                                               ; preds = %6, %22, %15
  %.0 = phi i32 [ 0, %6 ], [ -1, %15 ], [ 0, %22 ]
  ret i32 %.0
}